; Function Attrs: mustprogress nofree norecurse nosync nounwind willreturn memory(read, inaccessiblemem: none) uwtable
define hidden noundef zeroext i1 @_Z12isRepetitiveRKNSt7__cxx1112basic_stringIcSt11char_traitsIcESaIcEEE(ptr noundef nonnull readonly align 8 captures(none) dereferenceable(32) %0) local_unnamed_addr #8 {
  %2 = getelementptr inbounds nuw i8, ptr %0, i64 8
  %3 = load i64, ptr %2, align 8, !tbaa !42
  %4 = trunc i64 %3 to i32
  %5 = icmp sgt i32 %4, 0
  br i1 %5, label %.lr.ph, label %._crit_edge

.lr.ph:                                           ; preds = %1
  %6 = load ptr, ptr %0, align 8, !tbaa !40
  %wide.trip.count = and i64 %3, 2147483647
  br label %10

._crit_edge:                                      ; preds = %15, %1
  %.012.lcssa = phi i32 [ 0, %1 ], [ %.1, %15 ]
  %7 = add nsw i32 %4, 1
  %8 = sdiv i32 %7, 2
  %9 = icmp sgt i32 %.012.lcssa, %8
  ret i1 %9

10:                                               ; preds = %.lr.ph, %15
  %indvars.iv = phi i64 [ 0, %.lr.ph ], [ %indvars.iv.next, %15 ]
  %.01214 = phi i32 [ 0, %.lr.ph ], [ %.1, %15 ]
  %11 = getelementptr inbounds nuw i8, ptr %6, i64 %indvars.iv
  %12 = load i8, ptr %11, align 1, !tbaa !33
  switch i8 %12, label %15 [
    i8 105, label %13
    i8 108, label %13
    i8 73, label %13
  ]

13:                                               ; preds = %10, %10, %10
  %14 = add nsw i32 %.01214, 1
  br label %15

15:                                               ; preds = %10, %13
  %.1 = phi i32 [ %14, %13 ], [ %.01214, %10 ]
  %indvars.iv.next = add nuw nsw i64 %indvars.iv, 1
  %exitcond.not = icmp eq i64 %indvars.iv.next, %wide.trip.count
  br i1 %exitcond.not, label %._crit_edge, label %10, !llvm.loop !142
}